; ModuleID = '7/1289.c'
source_filename = "7/1289.c"
target datalayout = "e-m:e-p270:32:32-p271:32:32-p272:64:64-i64:64-f80:128-n8:16:32:64-S128"
target triple = "x86_64-pc-linux-gnu"

@.str = private unnamed_addr constant [3 x i8] c"%s\00", align 1
@.str.1 = private unnamed_addr constant [3 x i8] c"%c\00", align 1
@.str.2 = private unnamed_addr constant [2 x i8] c"\0A\00", align 1
@.str.3 = private unnamed_addr constant [4 x i8] c"%s\0A\00", align 1

; Function Attrs: noinline nounwind uwtable
define dso_local i32 @main() #0 {
  %1 = alloca i32, align 4
  %2 = alloca [260 x i8], align 16
  %3 = alloca [260 x i8], align 16
  %4 = alloca [260 x i8], align 16
  %5 = alloca i32, align 4
  %6 = alloca i32, align 4
  %7 = alloca i32, align 4
  %8 = alloca i32, align 4
  %9 = alloca i32, align 4
  %10 = alloca i32, align 4
  store i32 0, i32* %1, align 4
  %11 = getelementptr inbounds [260 x i8], [260 x i8]* %2, i64 0, i64 0
  %12 = call i32 (i8*, ...) @__isoc99_scanf(i8* getelementptr inbounds ([3 x i8], [3 x i8]* @.str, i64 0, i64 0), i8* %11)
  %13 = getelementptr inbounds [260 x i8], [260 x i8]* %3, i64 0, i64 0
  %14 = call i32 (i8*, ...) @__isoc99_scanf(i8* getelementptr inbounds ([3 x i8], [3 x i8]* @.str, i64 0, i64 0), i8* %13)
  %15 = getelementptr inbounds [260 x i8], [260 x i8]* %4, i64 0, i64 0
  %16 = call i32 (i8*, ...) @__isoc99_scanf(i8* getelementptr inbounds ([3 x i8], [3 x i8]* @.str, i64 0, i64 0), i8* %15)
  %17 = getelementptr inbounds [260 x i8], [260 x i8]* %2, i64 0, i64 0
  %18 = call i64 @strlen(i8* %17) #3
  %19 = trunc i64 %18 to i32
  store i32 %19, i32* %5, align 4
  %20 = getelementptr inbounds [260 x i8], [260 x i8]* %3, i64 0, i64 0
  %21 = call i64 @strlen(i8* %20) #3
  %22 = trunc i64 %21 to i32
  store i32 %22, i32* %6, align 4
  %23 = getelementptr inbounds [260 x i8], [260 x i8]* %4, i64 0, i64 0
  %24 = call i64 @strlen(i8* %23) #3
  %25 = trunc i64 %24 to i32
  store i32 %25, i32* %7, align 4
  store i32 0, i32* %8, align 4
  br label %26

26:                                               ; preds = %111, %0
  %27 = load i32, i32* %8, align 4
  %28 = load i32, i32* %5, align 4
  %29 = icmp slt i32 %27, %28
  br i1 %29, label %30, label %114

30:                                               ; preds = %26
  store i32 0, i32* %10, align 4
  store i32 0, i32* %9, align 4
  br label %31

31:                                               ; preds = %53, %30
  %32 = load i32, i32* %9, align 4
  %33 = load i32, i32* %6, align 4
  %34 = icmp slt i32 %32, %33
  br i1 %34, label %35, label %56

35:                                               ; preds = %31
  %36 = load i32, i32* %8, align 4
  %37 = load i32, i32* %9, align 4
  %38 = add nsw i32 %36, %37
  %39 = sext i32 %38 to i64
  %40 = getelementptr inbounds [260 x i8], [260 x i8]* %2, i64 0, i64 %39
  %41 = load i8, i8* %40, align 1
  %42 = sext i8 %41 to i32
  %43 = load i32, i32* %9, align 4
  %44 = sext i32 %43 to i64
  %45 = getelementptr inbounds [260 x i8], [260 x i8]* %3, i64 0, i64 %44
  %46 = load i8, i8* %45, align 1
  %47 = sext i8 %46 to i32
  %48 = icmp eq i32 %42, %47
  br i1 %48, label %49, label %52

49:                                               ; preds = %35
  %50 = load i32, i32* %10, align 4
  %51 = add nsw i32 %50, 1
  store i32 %51, i32* %10, align 4
  br label %52

52:                                               ; preds = %49, %35
  br label %53

53:                                               ; preds = %52
  %54 = load i32, i32* %9, align 4
  %55 = add nsw i32 %54, 1
  store i32 %55, i32* %9, align 4
  br label %31

56:                                               ; preds = %31
  %57 = load i32, i32* %10, align 4
  %58 = load i32, i32* %6, align 4
  %59 = icmp eq i32 %57, %58
  br i1 %59, label %60, label %110

60:                                               ; preds = %56
  store i32 0, i32* %9, align 4
  br label %61

61:                                               ; preds = %72, %60
  %62 = load i32, i32* %9, align 4
  %63 = load i32, i32* %8, align 4
  %64 = icmp slt i32 %62, %63
  br i1 %64, label %65, label %75

65:                                               ; preds = %61
  %66 = load i32, i32* %9, align 4
  %67 = sext i32 %66 to i64
  %68 = getelementptr inbounds [260 x i8], [260 x i8]* %2, i64 0, i64 %67
  %69 = load i8, i8* %68, align 1
  %70 = sext i8 %69 to i32
  %71 = call i32 (i8*, ...) @printf(i8* getelementptr inbounds ([3 x i8], [3 x i8]* @.str.1, i64 0, i64 0), i32 %70)
  br label %72

72:                                               ; preds = %65
  %73 = load i32, i32* %9, align 4
  %74 = add nsw i32 %73, 1
  store i32 %74, i32* %9, align 4
  br label %61

75:                                               ; preds = %61
  store i32 0, i32* %9, align 4
  br label %76

76:                                               ; preds = %87, %75
  %77 = load i32, i32* %9, align 4
  %78 = load i32, i32* %7, align 4
  %79 = icmp slt i32 %77, %78
  br i1 %79, label %80, label %90

80:                                               ; preds = %76
  %81 = load i32, i32* %9, align 4
  %82 = sext i32 %81 to i64
  %83 = getelementptr inbounds [260 x i8], [260 x i8]* %4, i64 0, i64 %82
  %84 = load i8, i8* %83, align 1
  %85 = sext i8 %84 to i32
  %86 = call i32 (i8*, ...) @printf(i8* getelementptr inbounds ([3 x i8], [3 x i8]* @.str.1, i64 0, i64 0), i32 %85)
  br label %87

87:                                               ; preds = %80
  %88 = load i32, i32* %9, align 4
  %89 = add nsw i32 %88, 1
  store i32 %89, i32* %9, align 4
  br label %76

90:                                               ; preds = %76
  %91 = load i32, i32* %8, align 4
  %92 = load i32, i32* %7, align 4
  %93 = add nsw i32 %91, %92
  store i32 %93, i32* %9, align 4
  br label %94

94:                                               ; preds = %105, %90
  %95 = load i32, i32* %9, align 4
  %96 = load i32, i32* %5, align 4
  %97 = icmp slt i32 %95, %96
  br i1 %97, label %98, label %108

98:                                               ; preds = %94
  %99 = load i32, i32* %9, align 4
  %100 = sext i32 %99 to i64
  %101 = getelementptr inbounds [260 x i8], [260 x i8]* %2, i64 0, i64 %100
  %102 = load i8, i8* %101, align 1
  %103 = sext i8 %102 to i32
  %104 = call i32 (i8*, ...) @printf(i8* getelementptr inbounds ([3 x i8], [3 x i8]* @.str.1, i64 0, i64 0), i32 %103)
  br label %105

105:                                              ; preds = %98
  %106 = load i32, i32* %9, align 4
  %107 = add nsw i32 %106, 1
  store i32 %107, i32* %9, align 4
  br label %94

108:                                              ; preds = %94
  %109 = call i32 (i8*, ...) @printf(i8* getelementptr inbounds ([2 x i8], [2 x i8]* @.str.2, i64 0, i64 0))
  br label %114

110:                                              ; preds = %56
  br label %111

111:                                              ; preds = %110
  %112 = load i32, i32* %8, align 4
  %113 = add nsw i32 %112, 1
  store i32 %113, i32* %8, align 4
  br label %26

114:                                              ; preds = %108, %26
  %115 = load i32, i32* %10, align 4
  %116 = load i32, i32* %6, align 4
  %117 = icmp ne i32 %115, %116
  br i1 %117, label %118, label %121

118:                                              ; preds = %114
  %119 = getelementptr inbounds [260 x i8], [260 x i8]* %2, i64 0, i64 0
  %120 = call i32 (i8*, ...) @printf(i8* getelementptr inbounds ([4 x i8], [4 x i8]* @.str.3, i64 0, i64 0), i8* %119)
  br label %121

121:                                              ; preds = %118, %114
  %122 = load i32, i32* %1, align 4
  ret i32 %122
}

declare dso_local i32 @__isoc99_scanf(i8*, ...) #1

; Function Attrs: nounwind readonly
declare dso_local i64 @strlen(i8*) #2

declare dso_local i32 @printf(i8*, ...) #1


!llvm.module.flags = !{!0}
!llvm.ident = !{!1}

!0 = !{i32 1, !"wchar_size", i32 4}
!1 = !{!"clang version 10.0.0-4ubuntu1 "}
